target datalayout = "e-m:e-p270:32:32-p271:32:32-p272:64:64-i64:64-i128:128-f80:128-n8:16:32:64-S128"
target triple = "x86_64-pc-linux-gnu"

%struct.malloc_state = type { i32, i32, i64, i64, ptr, ptr, ptr, i64, i64, i64, [66 x ptr], [32 x ptr], i64, i64, i64, i32, i32, %struct.malloc_segment, ptr, i64 }
%struct.malloc_segment = type { ptr, i64, ptr, i32 }
%struct.malloc_chunk = type { i64, i64, ptr, ptr }

@_gm_ = internal global %struct.malloc_state zeroinitializer, align 8

; Function Attrs: nounwind uwtable
define internal i32 @spin_acquire_lock(ptr noundef %0) #0 {
  %2 = alloca ptr, align 8
  %3 = alloca i32, align 4
  store ptr %0, ptr %2, align 8, !tbaa !16
  call void @llvm.lifetime.start.p0(i64 4, ptr %3) #9
  store i32 0, ptr %3, align 4, !tbaa !14
  br label %4

4:                                                ; preds = %21, %1
  %5 = load ptr, ptr %2, align 8, !tbaa !16
  %6 = load volatile i32, ptr %5, align 4, !tbaa !14
  %7 = icmp ne i32 %6, 0
  br i1 %7, label %12, label %8

8:                                                ; preds = %4
  %9 = load ptr, ptr %2, align 8, !tbaa !16
  %10 = atomicrmw xchg ptr %9, i32 1 seq_cst, align 4
  %11 = icmp ne i32 %10, 0
  br label %12

12:                                               ; preds = %8, %4
  %13 = phi i1 [ true, %4 ], [ %11, %8 ]
  br i1 %13, label %14, label %22

14:                                               ; preds = %12
  %15 = load i32, ptr %3, align 4, !tbaa !14
  %16 = add nsw i32 %15, 1
  store i32 %16, ptr %3, align 4, !tbaa !14
  %17 = and i32 %16, 63
  %18 = icmp eq i32 %17, 0
  br i1 %18, label %19, label %21

19:                                               ; preds = %14
  %20 = call i32 @sched_yield() #9
  br label %21

21:                                               ; preds = %19, %14
  br label %4, !llvm.loop !34

22:                                               ; preds = %12
  call void @llvm.lifetime.end.p0(i64 4, ptr %3) #9
  ret i32 0
}

; Function Attrs: nounwind uwtable
define internal ptr @internal_memalign(ptr noundef %0, i64 noundef %1, i64 noundef %2) #0 {
  %4 = alloca ptr, align 8
  %5 = alloca ptr, align 8
  %6 = alloca i64, align 8
  %7 = alloca i64, align 8
  %8 = alloca ptr, align 8
  %9 = alloca i64, align 8
  %10 = alloca i64, align 8
  %11 = alloca i64, align 8
  %12 = alloca ptr, align 8
  %13 = alloca i32, align 4
  %14 = alloca ptr, align 8
  %15 = alloca ptr, align 8
  %16 = alloca ptr, align 8
  %17 = alloca i64, align 8
  %18 = alloca i64, align 8
  %19 = alloca i64, align 8
  %20 = alloca i64, align 8
  %21 = alloca ptr, align 8
  store ptr %0, ptr %5, align 8, !tbaa !16
  store i64 %1, ptr %6, align 8, !tbaa !3
  store i64 %2, ptr %7, align 8, !tbaa !3
  call void @llvm.lifetime.start.p0(i64 8, ptr %8) #9
  store ptr null, ptr %8, align 8, !tbaa !16
  %22 = load i64, ptr %6, align 8, !tbaa !3
  %23 = icmp ult i64 %22, 32
  br i1 %23, label %24, label %25

24:                                               ; preds = %3
  store i64 32, ptr %6, align 8, !tbaa !3
  br label %25

25:                                               ; preds = %24, %3
  %26 = load i64, ptr %6, align 8, !tbaa !3
  %27 = load i64, ptr %6, align 8, !tbaa !3
  %28 = sub i64 %27, 1
  %29 = and i64 %26, %28
  %30 = icmp ne i64 %29, 0
  br i1 %30, label %31, label %41

31:                                               ; preds = %25
  call void @llvm.lifetime.start.p0(i64 8, ptr %9) #9
  store i64 32, ptr %9, align 8, !tbaa !3
  br label %32

32:                                               ; preds = %36, %31
  %33 = load i64, ptr %9, align 8, !tbaa !3
  %34 = load i64, ptr %6, align 8, !tbaa !3
  %35 = icmp ult i64 %33, %34
  br i1 %35, label %36, label %39

36:                                               ; preds = %32
  %37 = load i64, ptr %9, align 8, !tbaa !3
  %38 = shl i64 %37, 1
  store i64 %38, ptr %9, align 8, !tbaa !3
  br label %32, !llvm.loop !68

39:                                               ; preds = %32
  %40 = load i64, ptr %9, align 8, !tbaa !3
  store i64 %40, ptr %6, align 8, !tbaa !3
  call void @llvm.lifetime.end.p0(i64 8, ptr %9) #9
  br label %41

41:                                               ; preds = %39, %25
  %42 = load i64, ptr %7, align 8, !tbaa !3
  %43 = load i64, ptr %6, align 8, !tbaa !3
  %44 = sub i64 -128, %43
  %45 = icmp uge i64 %42, %44
  br i1 %45, label %46, label %52

46:                                               ; preds = %41
  %47 = load ptr, ptr %5, align 8, !tbaa !16
  %48 = icmp ne ptr %47, null
  br i1 %48, label %49, label %51

49:                                               ; preds = %46
  %50 = call ptr @__errno_location() #11
  store i32 12, ptr %50, align 4, !tbaa !14
  br label %51

51:                                               ; preds = %49, %46
  br label %273

52:                                               ; preds = %41
  call void @llvm.lifetime.start.p0(i64 8, ptr %10) #9
  %53 = load i64, ptr %7, align 8, !tbaa !3
  %54 = icmp ult i64 %53, 23
  br i1 %54, label %55, label %56

55:                                               ; preds = %52
  br label %61

56:                                               ; preds = %52
  %57 = load i64, ptr %7, align 8, !tbaa !3
  %58 = add i64 %57, 8
  %59 = add i64 %58, 15
  %60 = and i64 %59, -16
  br label %61

61:                                               ; preds = %56, %55
  %62 = phi i64 [ 32, %55 ], [ %60, %56 ]
  store i64 %62, ptr %10, align 8, !tbaa !3
  call void @llvm.lifetime.start.p0(i64 8, ptr %11) #9
  %63 = load i64, ptr %10, align 8, !tbaa !3
  %64 = load i64, ptr %6, align 8, !tbaa !3
  %65 = add i64 %63, %64
  %66 = add i64 %65, 32
  %67 = sub i64 %66, 8
  store i64 %67, ptr %11, align 8, !tbaa !3
  %68 = load ptr, ptr %5, align 8, !tbaa !16
  %69 = icmp eq ptr %68, @_gm_
  br i1 %69, label %70, label %73

70:                                               ; preds = %61
  %71 = load i64, ptr %11, align 8, !tbaa !3
  %72 = call ptr @dlmalloc(i64 noundef %71)
  br label %77

73:                                               ; preds = %61
  %74 = load ptr, ptr %5, align 8, !tbaa !16
  %75 = load i64, ptr %11, align 8, !tbaa !3
  %76 = call ptr @mspace_malloc(ptr noundef %74, i64 noundef %75)
  br label %77

77:                                               ; preds = %73, %70
  %78 = phi ptr [ %72, %70 ], [ %76, %73 ]
  store ptr %78, ptr %8, align 8, !tbaa !16
  %79 = load ptr, ptr %8, align 8, !tbaa !16
  %80 = icmp ne ptr %79, null
  br i1 %80, label %81, label %269

81:                                               ; preds = %77
  call void @llvm.lifetime.start.p0(i64 8, ptr %12) #9
  %82 = load ptr, ptr %8, align 8, !tbaa !16
  %83 = getelementptr inbounds i8, ptr %82, i64 -16
  store ptr %83, ptr %12, align 8, !tbaa !16
  %84 = load ptr, ptr %5, align 8, !tbaa !16
  %85 = getelementptr inbounds nuw %struct.malloc_state, ptr %84, i32 0, i32 15
  %86 = load i32, ptr %85, align 8, !tbaa !10
  %87 = and i32 %86, 2
  %88 = icmp ne i32 %87, 0
  br i1 %88, label %89, label %100

89:                                               ; preds = %81
  %90 = load ptr, ptr %5, align 8, !tbaa !16
  %91 = getelementptr inbounds nuw %struct.malloc_state, ptr %90, i32 0, i32 16
  %92 = atomicrmw xchg ptr %91, i32 1 seq_cst, align 4
  %93 = icmp ne i32 %92, 0
  br i1 %93, label %94, label %99

94:                                               ; preds = %89
  %95 = load ptr, ptr %5, align 8, !tbaa !16
  %96 = getelementptr inbounds nuw %struct.malloc_state, ptr %95, i32 0, i32 16
  %97 = call i32 @spin_acquire_lock(ptr noundef %96)
  %98 = icmp ne i32 %97, 0
  br i1 %98, label %101, label %102

99:                                               ; preds = %89
  br i1 false, label %101, label %102

100:                                              ; preds = %81
  br i1 false, label %101, label %102

101:                                              ; preds = %100, %99, %94
  store ptr null, ptr %4, align 8
  store i32 1, ptr %13, align 4
  br label %266

102:                                              ; preds = %100, %99, %94
  %103 = load ptr, ptr %8, align 8, !tbaa !16
  %104 = ptrtoint ptr %103 to i64
  %105 = load i64, ptr %6, align 8, !tbaa !3
  %106 = sub i64 %105, 1
  %107 = and i64 %104, %106
  %108 = icmp ne i64 %107, 0
  br i1 %108, label %109, label %198

109:                                              ; preds = %102
  call void @llvm.lifetime.start.p0(i64 8, ptr %14) #9
  %110 = load ptr, ptr %8, align 8, !tbaa !16
  %111 = load i64, ptr %6, align 8, !tbaa !3
  %112 = getelementptr inbounds nuw i8, ptr %110, i64 %111
  %113 = getelementptr inbounds i8, ptr %112, i64 -1
  %114 = ptrtoint ptr %113 to i64
  %115 = load i64, ptr %6, align 8, !tbaa !3
  %116 = sub i64 0, %115
  %117 = and i64 %114, %116
  %118 = inttoptr i64 %117 to ptr
  %119 = getelementptr inbounds i8, ptr %118, i64 -16
  store ptr %119, ptr %14, align 8, !tbaa !16
  call void @llvm.lifetime.start.p0(i64 8, ptr %15) #9
  %120 = load ptr, ptr %14, align 8, !tbaa !16
  %121 = load ptr, ptr %12, align 8, !tbaa !16
  %122 = ptrtoint ptr %120 to i64
  %123 = ptrtoint ptr %121 to i64
  %124 = sub i64 %122, %123
  %125 = icmp uge i64 %124, 32
  br i1 %125, label %126, label %128

126:                                              ; preds = %109
  %127 = load ptr, ptr %14, align 8, !tbaa !16
  br label %132

128:                                              ; preds = %109
  %129 = load ptr, ptr %14, align 8, !tbaa !16
  %130 = load i64, ptr %6, align 8, !tbaa !3
  %131 = getelementptr inbounds nuw i8, ptr %129, i64 %130
  br label %132

132:                                              ; preds = %128, %126
  %133 = phi ptr [ %127, %126 ], [ %131, %128 ]
  store ptr %133, ptr %15, align 8, !tbaa !16
  call void @llvm.lifetime.start.p0(i64 8, ptr %16) #9
  %134 = load ptr, ptr %15, align 8, !tbaa !16
  store ptr %134, ptr %16, align 8, !tbaa !16
  call void @llvm.lifetime.start.p0(i64 8, ptr %17) #9
  %135 = load ptr, ptr %15, align 8, !tbaa !16
  %136 = load ptr, ptr %12, align 8, !tbaa !16
  %137 = ptrtoint ptr %135 to i64
  %138 = ptrtoint ptr %136 to i64
  %139 = sub i64 %137, %138
  store i64 %139, ptr %17, align 8, !tbaa !3
  call void @llvm.lifetime.start.p0(i64 8, ptr %18) #9
  %140 = load ptr, ptr %12, align 8, !tbaa !16
  %141 = getelementptr inbounds nuw %struct.malloc_chunk, ptr %140, i32 0, i32 1
  %142 = load i64, ptr %141, align 8, !tbaa !21
  %143 = and i64 %142, -8
  %144 = load i64, ptr %17, align 8, !tbaa !3
  %145 = sub i64 %143, %144
  store i64 %145, ptr %18, align 8, !tbaa !3
  %146 = load ptr, ptr %12, align 8, !tbaa !16
  %147 = getelementptr inbounds nuw %struct.malloc_chunk, ptr %146, i32 0, i32 1
  %148 = load i64, ptr %147, align 8, !tbaa !21
  %149 = and i64 %148, 3
  %150 = icmp eq i64 %149, 0
  br i1 %150, label %151, label %162

151:                                              ; preds = %132
  %152 = load ptr, ptr %12, align 8, !tbaa !16
  %153 = getelementptr inbounds nuw %struct.malloc_chunk, ptr %152, i32 0, i32 0
  %154 = load i64, ptr %153, align 8, !tbaa !23
  %155 = load i64, ptr %17, align 8, !tbaa !3
  %156 = add i64 %154, %155
  %157 = load ptr, ptr %16, align 8, !tbaa !16
  %158 = getelementptr inbounds nuw %struct.malloc_chunk, ptr %157, i32 0, i32 0
  store i64 %156, ptr %158, align 8, !tbaa !23
  %159 = load i64, ptr %18, align 8, !tbaa !3
  %160 = load ptr, ptr %16, align 8, !tbaa !16
  %161 = getelementptr inbounds nuw %struct.malloc_chunk, ptr %160, i32 0, i32 1
  store i64 %159, ptr %161, align 8, !tbaa !21
  br label %196

162:                                              ; preds = %132
  %163 = load ptr, ptr %16, align 8, !tbaa !16
  %164 = getelementptr inbounds nuw %struct.malloc_chunk, ptr %163, i32 0, i32 1
  %165 = load i64, ptr %164, align 8, !tbaa !21
  %166 = and i64 %165, 1
  %167 = load i64, ptr %18, align 8, !tbaa !3
  %168 = or i64 %166, %167
  %169 = or i64 %168, 2
  %170 = load ptr, ptr %16, align 8, !tbaa !16
  %171 = getelementptr inbounds nuw %struct.malloc_chunk, ptr %170, i32 0, i32 1
  store i64 %169, ptr %171, align 8, !tbaa !21
  %172 = load ptr, ptr %16, align 8, !tbaa !16
  %173 = load i64, ptr %18, align 8, !tbaa !3
  %174 = getelementptr inbounds nuw i8, ptr %172, i64 %173
  %175 = getelementptr inbounds nuw %struct.malloc_chunk, ptr %174, i32 0, i32 1
  %176 = load i64, ptr %175, align 8, !tbaa !21
  %177 = or i64 %176, 1
  store i64 %177, ptr %175, align 8, !tbaa !21
  %178 = load ptr, ptr %12, align 8, !tbaa !16
  %179 = getelementptr inbounds nuw %struct.malloc_chunk, ptr %178, i32 0, i32 1
  %180 = load i64, ptr %179, align 8, !tbaa !21
  %181 = and i64 %180, 1
  %182 = load i64, ptr %17, align 8, !tbaa !3
  %183 = or i64 %181, %182
  %184 = or i64 %183, 2
  %185 = load ptr, ptr %12, align 8, !tbaa !16
  %186 = getelementptr inbounds nuw %struct.malloc_chunk, ptr %185, i32 0, i32 1
  store i64 %184, ptr %186, align 8, !tbaa !21
  %187 = load ptr, ptr %12, align 8, !tbaa !16
  %188 = load i64, ptr %17, align 8, !tbaa !3
  %189 = getelementptr inbounds nuw i8, ptr %187, i64 %188
  %190 = getelementptr inbounds nuw %struct.malloc_chunk, ptr %189, i32 0, i32 1
  %191 = load i64, ptr %190, align 8, !tbaa !21
  %192 = or i64 %191, 1
  store i64 %192, ptr %190, align 8, !tbaa !21
  %193 = load ptr, ptr %5, align 8, !tbaa !16
  %194 = load ptr, ptr %12, align 8, !tbaa !16
  %195 = load i64, ptr %17, align 8, !tbaa !3
  call void @dispose_chunk(ptr noundef %193, ptr noundef %194, i64 noundef %195)
  br label %196

196:                                              ; preds = %162, %151
  %197 = load ptr, ptr %16, align 8, !tbaa !16
  store ptr %197, ptr %12, align 8, !tbaa !16
  call void @llvm.lifetime.end.p0(i64 8, ptr %18) #9
  call void @llvm.lifetime.end.p0(i64 8, ptr %17) #9
  call void @llvm.lifetime.end.p0(i64 8, ptr %16) #9
  call void @llvm.lifetime.end.p0(i64 8, ptr %15) #9
  call void @llvm.lifetime.end.p0(i64 8, ptr %14) #9
  br label %198

198:                                              ; preds = %196, %102
  %199 = load ptr, ptr %12, align 8, !tbaa !16
  %200 = getelementptr inbounds nuw %struct.malloc_chunk, ptr %199, i32 0, i32 1
  %201 = load i64, ptr %200, align 8, !tbaa !21
  %202 = and i64 %201, 3
  %203 = icmp eq i64 %202, 0
  br i1 %203, label %254, label %204

204:                                              ; preds = %198
  call void @llvm.lifetime.start.p0(i64 8, ptr %19) #9
  %205 = load ptr, ptr %12, align 8, !tbaa !16
  %206 = getelementptr inbounds nuw %struct.malloc_chunk, ptr %205, i32 0, i32 1
  %207 = load i64, ptr %206, align 8, !tbaa !21
  %208 = and i64 %207, -8
  store i64 %208, ptr %19, align 8, !tbaa !3
  %209 = load i64, ptr %19, align 8, !tbaa !3
  %210 = load i64, ptr %10, align 8, !tbaa !3
  %211 = add i64 %210, 32
  %212 = icmp ugt i64 %209, %211
  br i1 %212, label %213, label %253

213:                                              ; preds = %204
  call void @llvm.lifetime.start.p0(i64 8, ptr %20) #9
  %214 = load i64, ptr %19, align 8, !tbaa !3
  %215 = load i64, ptr %10, align 8, !tbaa !3
  %216 = sub i64 %214, %215
  store i64 %216, ptr %20, align 8, !tbaa !3
  call void @llvm.lifetime.start.p0(i64 8, ptr %21) #9
  %217 = load ptr, ptr %12, align 8, !tbaa !16
  %218 = load i64, ptr %10, align 8, !tbaa !3
  %219 = getelementptr inbounds nuw i8, ptr %217, i64 %218
  store ptr %219, ptr %21, align 8, !tbaa !16
  %220 = load ptr, ptr %12, align 8, !tbaa !16
  %221 = getelementptr inbounds nuw %struct.malloc_chunk, ptr %220, i32 0, i32 1
  %222 = load i64, ptr %221, align 8, !tbaa !21
  %223 = and i64 %222, 1
  %224 = load i64, ptr %10, align 8, !tbaa !3
  %225 = or i64 %223, %224
  %226 = or i64 %225, 2
  %227 = load ptr, ptr %12, align 8, !tbaa !16
  %228 = getelementptr inbounds nuw %struct.malloc_chunk, ptr %227, i32 0, i32 1
  store i64 %226, ptr %228, align 8, !tbaa !21
  %229 = load ptr, ptr %12, align 8, !tbaa !16
  %230 = load i64, ptr %10, align 8, !tbaa !3
  %231 = getelementptr inbounds nuw i8, ptr %229, i64 %230
  %232 = getelementptr inbounds nuw %struct.malloc_chunk, ptr %231, i32 0, i32 1
  %233 = load i64, ptr %232, align 8, !tbaa !21
  %234 = or i64 %233, 1
  store i64 %234, ptr %232, align 8, !tbaa !21
  %235 = load ptr, ptr %21, align 8, !tbaa !16
  %236 = getelementptr inbounds nuw %struct.malloc_chunk, ptr %235, i32 0, i32 1
  %237 = load i64, ptr %236, align 8, !tbaa !21
  %238 = and i64 %237, 1
  %239 = load i64, ptr %20, align 8, !tbaa !3
  %240 = or i64 %238, %239
  %241 = or i64 %240, 2
  %242 = load ptr, ptr %21, align 8, !tbaa !16
  %243 = getelementptr inbounds nuw %struct.malloc_chunk, ptr %242, i32 0, i32 1
  store i64 %241, ptr %243, align 8, !tbaa !21
  %244 = load ptr, ptr %21, align 8, !tbaa !16
  %245 = load i64, ptr %20, align 8, !tbaa !3
  %246 = getelementptr inbounds nuw i8, ptr %244, i64 %245
  %247 = getelementptr inbounds nuw %struct.malloc_chunk, ptr %246, i32 0, i32 1
  %248 = load i64, ptr %247, align 8, !tbaa !21
  %249 = or i64 %248, 1
  store i64 %249, ptr %247, align 8, !tbaa !21
  %250 = load ptr, ptr %5, align 8, !tbaa !16
  %251 = load ptr, ptr %21, align 8, !tbaa !16
  %252 = load i64, ptr %20, align 8, !tbaa !3
  call void @dispose_chunk(ptr noundef %250, ptr noundef %251, i64 noundef %252)
  call void @llvm.lifetime.end.p0(i64 8, ptr %21) #9
  call void @llvm.lifetime.end.p0(i64 8, ptr %20) #9
  br label %253

253:                                              ; preds = %213, %204
  call void @llvm.lifetime.end.p0(i64 8, ptr %19) #9
  br label %254

254:                                              ; preds = %253, %198
  %255 = load ptr, ptr %12, align 8, !tbaa !16
  %256 = getelementptr inbounds nuw i8, ptr %255, i64 16
  store ptr %256, ptr %8, align 8, !tbaa !16
  %257 = load ptr, ptr %5, align 8, !tbaa !16
  %258 = getelementptr inbounds nuw %struct.malloc_state, ptr %257, i32 0, i32 15
  %259 = load i32, ptr %258, align 8, !tbaa !10
  %260 = and i32 %259, 2
  %261 = icmp ne i32 %260, 0
  br i1 %261, label %262, label %265

262:                                              ; preds = %254
  %263 = load ptr, ptr %5, align 8, !tbaa !16
  %264 = getelementptr inbounds nuw %struct.malloc_state, ptr %263, i32 0, i32 16
  store atomic i32 0, ptr %264 release, align 4
  br label %265

265:                                              ; preds = %262, %254
  store i32 0, ptr %13, align 4
  br label %266

266:                                              ; preds = %265, %101
  call void @llvm.lifetime.end.p0(i64 8, ptr %12) #9
  %267 = load i32, ptr %13, align 4
  switch i32 %267, label %270 [
    i32 0, label %268
  ]

268:                                              ; preds = %266
  br label %269

269:                                              ; preds = %268, %77
  store i32 0, ptr %13, align 4
  br label %270

270:                                              ; preds = %269, %266
  call void @llvm.lifetime.end.p0(i64 8, ptr %11) #9
  call void @llvm.lifetime.end.p0(i64 8, ptr %10) #9
  %271 = load i32, ptr %13, align 4
  switch i32 %271, label %275 [
    i32 0, label %272
  ]

272:                                              ; preds = %270
  br label %273

273:                                              ; preds = %272, %51
  %274 = load ptr, ptr %8, align 8, !tbaa !16
  store ptr %274, ptr %4, align 8
  store i32 1, ptr %13, align 4
  br label %275

275:                                              ; preds = %273, %270
  call void @llvm.lifetime.end.p0(i64 8, ptr %8) #9
  %276 = load ptr, ptr %4, align 8
  ret ptr %276
}