; Function Attrs: nounwind uwtable
define internal fastcc ptr @internal_memalign(ptr noundef %0, i64 noundef range(i64 17, 16) %1, i64 noundef %2) unnamed_addr #0 {
  %spec.store.select = tail call i64 @llvm.umax.i64(i64 %1, i64 32)
  %4 = tail call range(i64 1, 65) i64 @llvm.ctpop.i64(i64 %spec.store.select)
  %.not = icmp samesign ult i64 %4, 2
  br i1 %.not, label %.loopexit, label %.preheader105

.preheader105:                                    ; preds = %3, %.preheader105
  %.091 = phi i64 [ %6, %.preheader105 ], [ 32, %3 ]
  %5 = icmp ult i64 %.091, %spec.store.select
  %6 = shl i64 %.091, 1
  br i1 %5, label %.preheader105, label %.loopexit, !llvm.loop !75

.loopexit:                                        ; preds = %.preheader105, %3
  %.086 = phi i64 [ %spec.store.select, %3 ], [ %.091, %.preheader105 ]
  %7 = sub i64 -128, %.086
  %.not98 = icmp ult i64 %2, %7
  br i1 %.not98, label %11, label %8

8:                                                ; preds = %.loopexit
  %.not104 = icmp eq ptr %0, null
  br i1 %.not104, label %114, label %9

9:                                                ; preds = %8
  %10 = tail call ptr @__errno_location() #19
  store i32 12, ptr %10, align 4, !tbaa !13
  br label %114

11:                                               ; preds = %.loopexit
  %12 = icmp ult i64 %2, 23
  %13 = add i64 %2, 23
  %14 = and i64 %13, -16
  %15 = select i1 %12, i64 32, i64 %14
  %16 = add i64 %15, 24
  %17 = add i64 %16, %.086
  %18 = icmp eq ptr %0, @_gm_
  br i1 %18, label %19, label %21

19:                                               ; preds = %11
  %20 = tail call ptr @dlmalloc(i64 noundef %17)
  br label %23

21:                                               ; preds = %11
  %22 = tail call ptr @mspace_malloc(ptr noundef %0, i64 noundef %17)
  br label %23

23:                                               ; preds = %21, %19
  %24 = phi ptr [ %20, %19 ], [ %22, %21 ]
  %.not99 = icmp eq ptr %24, null
  br i1 %.not99, label %114, label %25

25:                                               ; preds = %23
  %26 = getelementptr inbounds i8, ptr %24, i64 -16
  %27 = getelementptr inbounds nuw i8, ptr %0, i64 880
  %28 = load i32, ptr %27, align 8, !tbaa !9
  %29 = and i32 %28, 2
  %.not100 = icmp eq i32 %29, 0
  br i1 %.not100, label %spin_acquire_lock.exit, label %30

30:                                               ; preds = %25
  %31 = getelementptr inbounds nuw i8, ptr %0, i64 884
  %32 = atomicrmw xchg ptr %31, i32 1 seq_cst, align 4
  %.not101 = icmp eq i32 %32, 0
  br i1 %.not101, label %spin_acquire_lock.exit, label %.preheader

.preheader:                                       ; preds = %30, %.preheader.backedge
  %.0.i = phi i32 [ %36, %.preheader.backedge ], [ 0, %30 ]
  %33 = load volatile i32, ptr %31, align 4, !tbaa !13
  %.not.i = icmp eq i32 %33, 0
  br i1 %.not.i, label %34, label %.critedge.i

34:                                               ; preds = %.preheader
  %35 = atomicrmw xchg ptr %31, i32 1 seq_cst, align 4
  %.not2.i = icmp eq i32 %35, 0
  br i1 %.not2.i, label %spin_acquire_lock.exit, label %.critedge.i

.critedge.i:                                      ; preds = %34, %.preheader
  %36 = add nuw nsw i32 %.0.i, 1
  %37 = and i32 %36, 63
  %38 = icmp eq i32 %37, 0
  br i1 %38, label %39, label %.preheader.backedge

39:                                               ; preds = %.critedge.i
  %40 = tail call i32 @sched_yield() #17
  br label %.preheader.backedge

.preheader.backedge:                              ; preds = %39, %.critedge.i
  br label %.preheader, !llvm.loop !14

spin_acquire_lock.exit:                           ; preds = %34, %25, %30
  %41 = ptrtoint ptr %24 to i64
  %42 = add i64 %.086, -1
  %43 = and i64 %42, %41
  %.not102 = icmp eq i64 %43, 0
  br i1 %.not102, label %87, label %44

44:                                               ; preds = %spin_acquire_lock.exit
  %45 = getelementptr inbounds nuw i8, ptr %24, i64 %.086
  %46 = getelementptr inbounds i8, ptr %45, i64 -1
  %47 = ptrtoint ptr %46 to i64
  %48 = sub i64 0, %.086
  %49 = and i64 %47, %48
  %50 = inttoptr i64 %49 to ptr
  %51 = getelementptr inbounds i8, ptr %50, i64 -16
  %52 = ptrtoint ptr %51 to i64
  %53 = ptrtoint ptr %26 to i64
  %54 = sub i64 %52, %53
  %55 = icmp ugt i64 %54, 31
  %.idx = select i1 %55, i64 0, i64 %.086
  %56 = getelementptr inbounds nuw i8, ptr %51, i64 %.idx
  %57 = ptrtoint ptr %56 to i64
  %58 = sub i64 %57, %53
  %59 = getelementptr inbounds i8, ptr %24, i64 -8
  %60 = load i64, ptr %59, align 8, !tbaa !23
  %61 = and i64 %60, -8
  %62 = sub i64 %61, %58
  %63 = and i64 %60, 3
  %64 = icmp eq i64 %63, 0
  br i1 %64, label %65, label %69

65:                                               ; preds = %44
  %66 = load i64, ptr %26, align 8, !tbaa !25
  %67 = add i64 %66, %58
  store i64 %67, ptr %56, align 8, !tbaa !25
  %68 = getelementptr inbounds nuw i8, ptr %56, i64 8
  store i64 %62, ptr %68, align 8, !tbaa !23
  br label %87

69:                                               ; preds = %44
  %70 = getelementptr inbounds nuw i8, ptr %56, i64 8
  %71 = load i64, ptr %70, align 8, !tbaa !23
  %72 = and i64 %71, 1
  %73 = or i64 %62, %72
  %74 = or i64 %73, 2
  store i64 %74, ptr %70, align 8, !tbaa !23
  %75 = getelementptr inbounds nuw i8, ptr %56, i64 %62
  %76 = getelementptr inbounds nuw i8, ptr %75, i64 8
  %77 = load i64, ptr %76, align 8, !tbaa !23
  %78 = or i64 %77, 1
  store i64 %78, ptr %76, align 8, !tbaa !23
  %79 = load i64, ptr %59, align 8, !tbaa !23
  %80 = and i64 %79, 1
  %81 = or i64 %58, %80
  %82 = or i64 %81, 2
  store i64 %82, ptr %59, align 8, !tbaa !23
  %83 = getelementptr inbounds nuw i8, ptr %26, i64 %58
  %84 = getelementptr inbounds nuw i8, ptr %83, i64 8
  %85 = load i64, ptr %84, align 8, !tbaa !23
  %86 = or i64 %85, 1
  store i64 %86, ptr %84, align 8, !tbaa !23
  tail call fastcc void @dispose_chunk(ptr noundef nonnull %0, ptr noundef nonnull %26, i64 noundef %58)
  br label %87

87:                                               ; preds = %65, %69, %spin_acquire_lock.exit
  %.092 = phi ptr [ %26, %spin_acquire_lock.exit ], [ %56, %69 ], [ %56, %65 ]
  %88 = getelementptr inbounds nuw i8, ptr %.092, i64 8
  %89 = load i64, ptr %88, align 8, !tbaa !23
  %90 = and i64 %89, 3
  %91 = icmp eq i64 %90, 0
  br i1 %91, label %108, label %92

92:                                               ; preds = %87
  %93 = and i64 %89, -8
  %94 = add i64 %15, 32
  %95 = icmp ugt i64 %93, %94
  br i1 %95, label %96, label %108

96:                                               ; preds = %92
  %97 = sub i64 %93, %15
  %98 = getelementptr inbounds nuw i8, ptr %.092, i64 %15
  %99 = and i64 %89, 1
  %100 = or disjoint i64 %15, %99
  %101 = or disjoint i64 %100, 2
  store i64 %101, ptr %88, align 8, !tbaa !23
  %102 = getelementptr inbounds nuw i8, ptr %98, i64 8
  %103 = or disjoint i64 %97, 3
  store i64 %103, ptr %102, align 8, !tbaa !23
  %104 = getelementptr inbounds nuw i8, ptr %.092, i64 %93
  %105 = getelementptr inbounds nuw i8, ptr %104, i64 8
  %106 = load i64, ptr %105, align 8, !tbaa !23
  %107 = or i64 %106, 1
  store i64 %107, ptr %105, align 8, !tbaa !23
  tail call fastcc void @dispose_chunk(ptr noundef nonnull %0, ptr noundef %98, i64 noundef %97)
  br label %108

108:                                              ; preds = %92, %96, %87
  %109 = getelementptr inbounds nuw i8, ptr %.092, i64 16
  %110 = load i32, ptr %27, align 8, !tbaa !9
  %111 = and i32 %110, 2
  %.not103 = icmp eq i32 %111, 0
  br i1 %.not103, label %114, label %112

112:                                              ; preds = %108
  %113 = getelementptr inbounds nuw i8, ptr %0, i64 884
  store atomic i32 0, ptr %113 release, align 4
  br label %114

114:                                              ; preds = %9, %8, %23, %108, %112
  %.087 = phi ptr [ null, %9 ], [ null, %8 ], [ null, %23 ], [ %109, %108 ], [ %109, %112 ]
  ret ptr %.087
}